target datalayout = "e-m:e-p270:32:32-p271:32:32-p272:64:64-i64:64-i128:128-f80:128-n8:16:32:64-S128"
target triple = "x86_64-pc-linux-gnu"

%struct._zval_struct = type { %union._zend_value, %union.anon, %union.anon.2 }
%union._zend_value = type { i64 }
%union.anon = type { i32 }
%union.anon.2 = type { i32 }

; Function Attrs: nounwind uwtable
define dso_local void @zend_declare_property_null(ptr noundef %0, ptr noundef %1, i64 noundef %2, i32 noundef %3) #0 {
  %5 = alloca ptr, align 8
  %6 = alloca ptr, align 8
  %7 = alloca i64, align 8
  %8 = alloca i32, align 4
  %9 = alloca %struct._zval_struct, align 8
  store ptr %0, ptr %5, align 8, !tbaa !66
  store ptr %1, ptr %6, align 8, !tbaa !47
  store i64 %2, ptr %7, align 8, !tbaa !85
  store i32 %3, ptr %8, align 4, !tbaa !4
  call void @llvm.lifetime.start.p0(i64 16, ptr %9) #21
  br label %10

10:                                               ; preds = %4
  %11 = getelementptr inbounds nuw %struct._zval_struct, ptr %9, i32 0, i32 1
  store i32 1, ptr %11, align 8, !tbaa !44
  br label %12

12:                                               ; preds = %10
  br label %13

13:                                               ; preds = %12
  %14 = load ptr, ptr %5, align 8, !tbaa !66
  %15 = load ptr, ptr %6, align 8, !tbaa !47
  %16 = load i64, ptr %7, align 8, !tbaa !85
  %17 = load i32, ptr %8, align 4, !tbaa !4
  call void @zend_declare_property(ptr noundef %14, ptr noundef %15, i64 noundef %16, ptr noundef %9, i32 noundef %17)
  call void @llvm.lifetime.end.p0(i64 16, ptr %9) #21
  ret void
}