; Function Attrs: nounwind uwtable
define dso_local void @zend_declare_property_null(ptr noundef %0, ptr noundef readonly captures(none) %1, i64 noundef %2, i32 noundef %3) local_unnamed_addr #2 {
  %5 = alloca %struct._zval_struct, align 8
  call void @llvm.lifetime.start.p0(i64 16, ptr nonnull %5) #34
  %6 = getelementptr inbounds nuw i8, ptr %5, i64 8
  store i32 1, ptr %6, align 8, !tbaa !42
  call void @zend_declare_property(ptr noundef %0, ptr noundef %1, i64 noundef %2, ptr noundef nonnull %5, i32 noundef %3)
  call void @llvm.lifetime.end.p0(i64 16, ptr nonnull %5) #34
  ret void
}